target datalayout = "e-m:e-p270:32:32-p271:32:32-p272:64:64-i64:64-i128:128-f80:128-n8:16:32:64-S128"
target triple = "x86_64-pc-linux-gnu"

; Function Attrs: nounwind uwtable
define i64 @cli_strlcpy(ptr noundef %0, ptr noundef %1, i64 noundef %2) #0 {
  %4 = alloca ptr, align 8
  %5 = alloca ptr, align 8
  %6 = alloca i64, align 8
  %7 = alloca ptr, align 8
  %8 = alloca ptr, align 8
  %9 = alloca i64, align 8
  store ptr %0, ptr %4, align 8
  store ptr %1, ptr %5, align 8
  store i64 %2, ptr %6, align 8
  %10 = load ptr, ptr %4, align 8
  store ptr %10, ptr %7, align 8
  %11 = load ptr, ptr %5, align 8
  store ptr %11, ptr %8, align 8
  %12 = load i64, ptr %6, align 8
  store i64 %12, ptr %9, align 8
  %13 = load i64, ptr %9, align 8
  %14 = icmp ne i64 %13, 0
  br i1 %14, label %15, label %31

15:                                               ; preds = %3
  br label %16

16:                                               ; preds = %29, %15
  %17 = load i64, ptr %9, align 8
  %18 = add i64 %17, -1
  store i64 %18, ptr %9, align 8
  %19 = icmp ne i64 %18, 0
  br i1 %19, label %20, label %30

20:                                               ; preds = %16
  %21 = load ptr, ptr %8, align 8
  %22 = getelementptr inbounds i8, ptr %21, i32 1
  store ptr %22, ptr %8, align 8
  %23 = load i8, ptr %21, align 1
  %24 = load ptr, ptr %7, align 8
  %25 = getelementptr inbounds i8, ptr %24, i32 1
  store ptr %25, ptr %7, align 8
  store i8 %23, ptr %24, align 1
  %26 = sext i8 %23 to i32
  %27 = icmp eq i32 %26, 0
  br i1 %27, label %28, label %29

28:                                               ; preds = %20
  br label %30

29:                                               ; preds = %20
  br label %16

30:                                               ; preds = %28, %16
  br label %31

31:                                               ; preds = %30, %3
  %32 = load i64, ptr %9, align 8
  %33 = icmp eq i64 %32, 0
  br i1 %33, label %34, label %47

34:                                               ; preds = %31
  %35 = load i64, ptr %6, align 8
  %36 = icmp ne i64 %35, 0
  br i1 %36, label %37, label %39

37:                                               ; preds = %34
  %38 = load ptr, ptr %7, align 8
  store i8 0, ptr %38, align 1
  br label %39

39:                                               ; preds = %37, %34
  br label %40

40:                                               ; preds = %45, %39
  %41 = load ptr, ptr %8, align 8
  %42 = getelementptr inbounds i8, ptr %41, i32 1
  store ptr %42, ptr %8, align 8
  %43 = load i8, ptr %41, align 1
  %44 = icmp ne i8 %43, 0
  br i1 %44, label %45, label %46

45:                                               ; preds = %40
  br label %40

46:                                               ; preds = %40
  br label %47

47:                                               ; preds = %46, %31
  %48 = load ptr, ptr %8, align 8
  %49 = load ptr, ptr %5, align 8
  %50 = ptrtoint ptr %48 to i64
  %51 = ptrtoint ptr %49 to i64
  %52 = sub i64 %50, %51
  %53 = sub nsw i64 %52, 1
  ret i64 %53
}


!llvm.module.flags = !{!0, !1, !2, !3}

!0 = !{i32 1, !"wchar_size", i32 4}
!1 = !{i32 8, !"PIC Level", i32 2}
!2 = !{i32 7, !"uwtable", i32 2}
!3 = !{i32 7, !"frame-pointer", i32 2}
